target datalayout = "e-m:e-p270:32:32-p271:32:32-p272:64:64-i64:64-i128:128-f80:128-n8:16:32:64-S128"
target triple = "x86_64-unknown-linux-gnu"

%"class.base::internal::JSONParser" = type <{ i32, [4 x i8], ptr, ptr, ptr, i32, i32, i32, i32, i32, i32, i32, [4 x i8] }>

; Function Attrs: mustprogress nounwind uwtable
define dso_local void @_ZN4base8internal10JSONParser11ReportErrorENS_10JSONReader14JsonParseErrorEi(ptr noundef nonnull align 8 dereferenceable(60) %this, i32 noundef %code, i32 noundef %column_adjust) #0 align 2 {
entry:
  %this.addr = alloca ptr, align 8
  %code.addr = alloca i32, align 4
  %column_adjust.addr = alloca i32, align 4
  store ptr %this, ptr %this.addr, align 8
  store i32 %code, ptr %code.addr, align 4
  store i32 %column_adjust, ptr %column_adjust.addr, align 4
  %this1 = load ptr, ptr %this.addr, align 8
  %0 = load i32, ptr %code.addr, align 4
  %error_code_ = getelementptr inbounds %"class.base::internal::JSONParser", ptr %this1, i32 0, i32 9
  store i32 %0, ptr %error_code_, align 8
  %line_number_ = getelementptr inbounds %"class.base::internal::JSONParser", ptr %this1, i32 0, i32 7
  %1 = load i32, ptr %line_number_, align 8
  %error_line_ = getelementptr inbounds %"class.base::internal::JSONParser", ptr %this1, i32 0, i32 10
  store i32 %1, ptr %error_line_, align 4
  %index_ = getelementptr inbounds %"class.base::internal::JSONParser", ptr %this1, i32 0, i32 5
  %2 = load i32, ptr %index_, align 8
  %index_last_line_ = getelementptr inbounds %"class.base::internal::JSONParser", ptr %this1, i32 0, i32 8
  %3 = load i32, ptr %index_last_line_, align 4
  %sub = sub nsw i32 %2, %3
  %4 = load i32, ptr %column_adjust.addr, align 4
  %add = add nsw i32 %sub, %4
  %error_column_ = getelementptr inbounds %"class.base::internal::JSONParser", ptr %this1, i32 0, i32 11
  store i32 %add, ptr %error_column_, align 8
  ret void
}