; Function Attrs: mustprogress nofree norecurse nosync nounwind willreturn memory(argmem: readwrite) uwtable
define dso_local void @_ZN4base8internal10JSONParser11ReportErrorENS_10JSONReader14JsonParseErrorEi(ptr nocapture noundef nonnull align 8 dereferenceable(60) %this, i32 noundef %code, i32 noundef %column_adjust) local_unnamed_addr #6 align 2 {
entry:
  %error_code_ = getelementptr inbounds i8, ptr %this, i64 48
  store i32 %code, ptr %error_code_, align 8
  %line_number_ = getelementptr inbounds i8, ptr %this, i64 40
  %0 = load i32, ptr %line_number_, align 8
  %error_line_ = getelementptr inbounds i8, ptr %this, i64 52
  store i32 %0, ptr %error_line_, align 4
  %index_ = getelementptr inbounds i8, ptr %this, i64 32
  %1 = load i32, ptr %index_, align 8
  %index_last_line_ = getelementptr inbounds i8, ptr %this, i64 44
  %2 = load i32, ptr %index_last_line_, align 4
  %sub = add i32 %1, %column_adjust
  %add = sub i32 %sub, %2
  %error_column_ = getelementptr inbounds i8, ptr %this, i64 56
  store i32 %add, ptr %error_column_, align 8
  ret void
}